; Function Attrs: nounwind uwtable
define range(i32 0, 2) i32 @BN_GF2m_mod(ptr noundef %0, ptr noundef captures(address) %1, ptr noundef %2) local_unnamed_addr #0 {
  %4 = alloca [6 x i32], align 16
  call void @llvm.lifetime.start.p0(i64 24, ptr nonnull %4) #5
  %5 = tail call i32 @BN_is_odd(ptr noundef %2) #5
  %.not.i = icmp eq i32 %5, 0
  br i1 %.not.i, label %BN_GF2m_poly2arr.exit.thread, label %6

6:                                                ; preds = %3
  %7 = getelementptr inbounds nuw i8, ptr %2, i64 8
  %8 = load i32, ptr %7, align 8, !tbaa !3
  %9 = icmp sgt i32 %8, 0
  br i1 %9, label %.lr.ph.i, label %BN_GF2m_poly2arr.exit

.lr.ph.i:                                         ; preds = %6
  %10 = load ptr, ptr %2, align 8, !tbaa !10
  %11 = zext nneg i32 %8 to i64
  br label %12

12:                                               ; preds = %.loopexit.i, %.lr.ph.i
  %indvars.iv.i = phi i64 [ %11, %.lr.ph.i ], [ %indvars.iv.next.i, %.loopexit.i ]
  %.02637.i = phi i32 [ 0, %.lr.ph.i ], [ %.1.i, %.loopexit.i ]
  %indvars.iv.next.i = add nsw i64 %indvars.iv.i, -1
  %13 = getelementptr inbounds nuw i64, ptr %10, i64 %indvars.iv.next.i
  %14 = load i64, ptr %13, align 8, !tbaa !11
  %.not30.i = icmp eq i64 %14, 0
  br i1 %.not30.i, label %.loopexit.i, label %.preheader.i

.preheader.i:                                     ; preds = %12
  %indvars.iv.next.tr.i = trunc i64 %indvars.iv.next.i to i32
  %15 = shl i32 %indvars.iv.next.tr.i, 6
  br label %16

16:                                               ; preds = %26, %.preheader.i
  %.035.i = phi i64 [ -9223372036854775808, %.preheader.i ], [ %27, %26 ]
  %.234.i = phi i32 [ %.02637.i, %.preheader.i ], [ %.3.i, %26 ]
  %.02732.i = phi i32 [ 63, %.preheader.i ], [ %28, %26 ]
  %17 = and i64 %.035.i, %14
  %.not31.i = icmp eq i64 %17, 0
  br i1 %.not31.i, label %26, label %18

18:                                               ; preds = %16
  %19 = icmp slt i32 %.234.i, 6
  br i1 %19, label %20, label %24

20:                                               ; preds = %18
  %21 = add nuw nsw i32 %.02732.i, %15
  %22 = sext i32 %.234.i to i64
  %23 = getelementptr inbounds i32, ptr %4, i64 %22
  store i32 %21, ptr %23, align 4, !tbaa !16
  br label %24

24:                                               ; preds = %20, %18
  %25 = add nsw i32 %.234.i, 1
  br label %26

26:                                               ; preds = %24, %16
  %.3.i = phi i32 [ %25, %24 ], [ %.234.i, %16 ]
  %27 = lshr i64 %.035.i, 1
  %28 = add nsw i32 %.02732.i, -1
  %.not40.i = icmp eq i32 %.02732.i, 0
  br i1 %.not40.i, label %.loopexit.i, label %16, !llvm.loop !21

.loopexit.i:                                      ; preds = %26, %12
  %.1.i = phi i32 [ %.02637.i, %12 ], [ %.3.i, %26 ]
  %29 = icmp sgt i64 %indvars.iv.i, 1
  br i1 %29, label %12, label %._crit_edge.i, !llvm.loop !22

._crit_edge.i:                                    ; preds = %.loopexit.i
  %30 = icmp sgt i32 %.1.i, 0
  br i1 %30, label %31, label %BN_GF2m_poly2arr.exit

31:                                               ; preds = %._crit_edge.i
  %32 = load i32, ptr %4, align 16, !tbaa !16
  %33 = icmp slt i32 %32, 662
  %34 = icmp samesign ult i32 %.1.i, 6
  %or.cond15 = select i1 %33, i1 %34, i1 false
  br i1 %or.cond15, label %BN_GF2m_poly2arr.exit, label %BN_GF2m_poly2arr.exit.thread

BN_GF2m_poly2arr.exit:                            ; preds = %31, %._crit_edge.i, %6
  %.026.lcssa42.i9 = phi i32 [ 0, %6 ], [ %.1.i, %._crit_edge.i ], [ %.1.i, %31 ]
  %35 = sext i32 %.026.lcssa42.i9 to i64
  %36 = getelementptr inbounds i32, ptr %4, i64 %35
  store i32 -1, ptr %36, align 4, !tbaa !16
  %37 = icmp eq i32 %.026.lcssa42.i9, -1
  br i1 %37, label %BN_GF2m_poly2arr.exit.thread, label %38

BN_GF2m_poly2arr.exit.thread:                     ; preds = %31, %3, %BN_GF2m_poly2arr.exit
  tail call void @ERR_new() #5
  tail call void @ERR_set_debug(ptr noundef nonnull @.str, i32 noundef 399, ptr noundef nonnull @__func__.BN_GF2m_mod) #5
  tail call void (i32, i32, ptr, ...) @ERR_set_error(i32 noundef 3, i32 noundef 106, ptr noundef null) #5
  br label %40

38:                                               ; preds = %BN_GF2m_poly2arr.exit
  %39 = call i32 @BN_GF2m_mod_arr(ptr noundef %0, ptr noundef %1, ptr noundef nonnull %4)
  br label %40

40:                                               ; preds = %38, %BN_GF2m_poly2arr.exit.thread
  %.0 = phi i32 [ 0, %BN_GF2m_poly2arr.exit.thread ], [ %39, %38 ]
  call void @llvm.lifetime.end.p0(i64 24, ptr nonnull %4) #5
  ret i32 %.0
}